; Function Attrs: mustprogress uwtable
define internal void @_ZNK7rocksdb12_GLOBAL__N_123LegacyFileSystemWrapper24OptimizeForManifestWriteERKNS_11FileOptionsE(ptr dead_on_unwind noalias writable sret(%"struct.rocksdb::FileOptions") align 8 %0, ptr noundef nonnull readonly align 8 captures(none) dereferenceable(40) %1, ptr noundef nonnull align 8 dereferenceable(138) %2) unnamed_addr #4 align 2 personality ptr @__gxx_personality_v0 {
  %4 = getelementptr inbounds nuw i8, ptr %1, i64 32
  %5 = load ptr, ptr %4, align 8, !tbaa !27
  %6 = load ptr, ptr %5, align 8, !tbaa !18
  %7 = getelementptr inbounds nuw i8, ptr %6, i64 600
  %8 = load ptr, ptr %7, align 8
  tail call void %8(ptr dead_on_unwind nonnull writable sret(%"struct.rocksdb::EnvOptions") align 8 %0, ptr noundef nonnull align 8 dereferenceable(72) %5, ptr noundef nonnull align 8 dereferenceable(48) %2)
  %9 = getelementptr inbounds nuw i8, ptr %0, i64 48
  store i64 0, ptr %9, align 8
  %10 = getelementptr inbounds nuw i8, ptr %0, i64 56
  store i8 0, ptr %10, align 8, !tbaa !70
  %11 = getelementptr inbounds nuw i8, ptr %0, i64 60
  store i32 4, ptr %11, align 4, !tbaa !86
  %12 = getelementptr inbounds nuw i8, ptr %0, i64 64
  store i8 7, ptr %12, align 8, !tbaa !87
  %13 = getelementptr inbounds nuw i8, ptr %0, i64 72
  %14 = getelementptr inbounds nuw i8, ptr %0, i64 120
  store ptr %14, ptr %13, align 8, !tbaa !88
  %15 = getelementptr inbounds nuw i8, ptr %0, i64 80
  store i64 1, ptr %15, align 8, !tbaa !89
  %16 = getelementptr inbounds nuw i8, ptr %0, i64 88
  %17 = getelementptr inbounds nuw i8, ptr %0, i64 104
  tail call void @llvm.memset.p0.i64(ptr noundef nonnull align 8 dereferenceable(16) %16, i8 0, i64 16, i1 false)
  store float 1.000000e+00, ptr %17, align 8, !tbaa !90
  %18 = getelementptr inbounds nuw i8, ptr %0, i64 112
  %19 = getelementptr inbounds nuw i8, ptr %0, i64 131
  tail call void @llvm.memset.p0.i64(ptr noundef nonnull align 8 dereferenceable(19) %18, i8 0, i64 19, i1 false)
  store i8 11, ptr %19, align 1, !tbaa !91
  %20 = getelementptr inbounds nuw i8, ptr %0, i64 136
  store i8 0, ptr %20, align 8, !tbaa !92
  %21 = getelementptr inbounds nuw i8, ptr %0, i64 137
  store i8 1, ptr %21, align 1, !tbaa !98
  ret void
}